target datalayout = "e-m:e-p270:32:32-p271:32:32-p272:64:64-i64:64-i128:128-f80:128-n8:16:32:64-S128"
target triple = "x86_64-pc-linux-gnu"

%struct.bio_st = type { ptr, ptr, ptr, i32, i32, i32, i32, i32, i32, ptr, ptr, i64, i64 }
%struct.bio_method_st = type { i32, ptr, ptr, ptr, ptr, ptr, ptr, ptr, ptr, ptr }

@.str = private unnamed_addr constant [120 x i8] c"generated/home/dtcxzyw/WorkSpace/Projects/compilers/llvm-opt-benchmark/bench/libquic/libquic/boringssl/crypto/bio/bio.c\00", align 1

; Function Attrs: nounwind uwtable
define hidden i64 @BIO_ctrl(ptr noundef %0, i32 noundef %1, i64 noundef %2, ptr noundef %3) #0 {
  %5 = alloca i64, align 8
  %6 = alloca ptr, align 8
  %7 = alloca i32, align 4
  %8 = alloca i64, align 8
  %9 = alloca ptr, align 8
  %10 = alloca i64, align 8
  %11 = alloca i32, align 4
  store ptr %0, ptr %6, align 8, !tbaa !11
  store i32 %1, ptr %7, align 4, !tbaa !23
  store i64 %2, ptr %8, align 8, !tbaa !29
  store ptr %3, ptr %9, align 8, !tbaa !28
  call void @llvm.lifetime.start.p0(i64 8, ptr %10) #9
  %12 = load ptr, ptr %6, align 8, !tbaa !11
  %13 = icmp eq ptr %12, null
  br i1 %13, label %14, label %15

14:                                               ; preds = %4
  store i64 0, ptr %5, align 8
  store i32 1, ptr %11, align 4
  br label %74

15:                                               ; preds = %4
  %16 = load ptr, ptr %6, align 8, !tbaa !11
  %17 = getelementptr inbounds nuw %struct.bio_st, ptr %16, i32 0, i32 0
  %18 = load ptr, ptr %17, align 8, !tbaa !13
  %19 = icmp eq ptr %18, null
  br i1 %19, label %27, label %20

20:                                               ; preds = %15
  %21 = load ptr, ptr %6, align 8, !tbaa !11
  %22 = getelementptr inbounds nuw %struct.bio_st, ptr %21, i32 0, i32 0
  %23 = load ptr, ptr %22, align 8, !tbaa !13
  %24 = getelementptr inbounds nuw %struct.bio_method_st, ptr %23, i32 0, i32 6
  %25 = load ptr, ptr %24, align 8, !tbaa !34
  %26 = icmp eq ptr %25, null
  br i1 %26, label %27, label %28

27:                                               ; preds = %20, %15
  call void @ERR_put_error(i32 noundef 17, i32 noundef 0, i32 noundef 115, ptr noundef @.str, i32 noundef 220)
  store i64 -2, ptr %5, align 8
  store i32 1, ptr %11, align 4
  br label %74

28:                                               ; preds = %20
  %29 = load ptr, ptr %6, align 8, !tbaa !11
  %30 = getelementptr inbounds nuw %struct.bio_st, ptr %29, i32 0, i32 1
  %31 = load ptr, ptr %30, align 8, !tbaa !22
  %32 = icmp ne ptr %31, null
  br i1 %32, label %33, label %47

33:                                               ; preds = %28
  %34 = load ptr, ptr %6, align 8, !tbaa !11
  %35 = getelementptr inbounds nuw %struct.bio_st, ptr %34, i32 0, i32 1
  %36 = load ptr, ptr %35, align 8, !tbaa !22
  %37 = load ptr, ptr %6, align 8, !tbaa !11
  %38 = load ptr, ptr %9, align 8, !tbaa !28
  %39 = load i32, ptr %7, align 4, !tbaa !23
  %40 = load i64, ptr %8, align 8, !tbaa !29
  %41 = call i64 %36(ptr noundef %37, i32 noundef 6, ptr noundef %38, i32 noundef %39, i64 noundef %40, i64 noundef 1)
  store i64 %41, ptr %10, align 8, !tbaa !29
  %42 = load i64, ptr %10, align 8, !tbaa !29
  %43 = icmp sle i64 %42, 0
  br i1 %43, label %44, label %46

44:                                               ; preds = %33
  %45 = load i64, ptr %10, align 8, !tbaa !29
  store i64 %45, ptr %5, align 8
  store i32 1, ptr %11, align 4
  br label %74

46:                                               ; preds = %33
  br label %47

47:                                               ; preds = %46, %28
  %48 = load ptr, ptr %6, align 8, !tbaa !11
  %49 = getelementptr inbounds nuw %struct.bio_st, ptr %48, i32 0, i32 0
  %50 = load ptr, ptr %49, align 8, !tbaa !13
  %51 = getelementptr inbounds nuw %struct.bio_method_st, ptr %50, i32 0, i32 6
  %52 = load ptr, ptr %51, align 8, !tbaa !34
  %53 = load ptr, ptr %6, align 8, !tbaa !11
  %54 = load i32, ptr %7, align 4, !tbaa !23
  %55 = load i64, ptr %8, align 8, !tbaa !29
  %56 = load ptr, ptr %9, align 8, !tbaa !28
  %57 = call i64 %52(ptr noundef %53, i32 noundef %54, i64 noundef %55, ptr noundef %56)
  store i64 %57, ptr %10, align 8, !tbaa !29
  %58 = load ptr, ptr %6, align 8, !tbaa !11
  %59 = getelementptr inbounds nuw %struct.bio_st, ptr %58, i32 0, i32 1
  %60 = load ptr, ptr %59, align 8, !tbaa !22
  %61 = icmp ne ptr %60, null
  br i1 %61, label %62, label %72

62:                                               ; preds = %47
  %63 = load ptr, ptr %6, align 8, !tbaa !11
  %64 = getelementptr inbounds nuw %struct.bio_st, ptr %63, i32 0, i32 1
  %65 = load ptr, ptr %64, align 8, !tbaa !22
  %66 = load ptr, ptr %6, align 8, !tbaa !11
  %67 = load ptr, ptr %9, align 8, !tbaa !28
  %68 = load i32, ptr %7, align 4, !tbaa !23
  %69 = load i64, ptr %8, align 8, !tbaa !29
  %70 = load i64, ptr %10, align 8, !tbaa !29
  %71 = call i64 %65(ptr noundef %66, i32 noundef 134, ptr noundef %67, i32 noundef %68, i64 noundef %69, i64 noundef %70)
  store i64 %71, ptr %10, align 8, !tbaa !29
  br label %72

72:                                               ; preds = %62, %47
  %73 = load i64, ptr %10, align 8, !tbaa !29
  store i64 %73, ptr %5, align 8
  store i32 1, ptr %11, align 4
  br label %74

74:                                               ; preds = %72, %44, %27, %14
  call void @llvm.lifetime.end.p0(i64 8, ptr %10) #9
  %75 = load i64, ptr %5, align 8
  ret i64 %75
}