; Function Attrs: nounwind uwtable
define hidden i64 @BIO_ctrl(ptr noundef %0, i32 noundef %1, i64 noundef %2, ptr noundef %3) local_unnamed_addr #0 {
  %5 = icmp eq ptr %0, null
  br i1 %5, label %26, label %6

6:                                                ; preds = %4
  %7 = load ptr, ptr %0, align 8, !tbaa !6
  %8 = icmp eq ptr %7, null
  br i1 %8, label %13, label %9

9:                                                ; preds = %6
  %10 = getelementptr inbounds nuw i8, ptr %7, i64 48
  %11 = load ptr, ptr %10, align 8, !tbaa !28
  %12 = icmp eq ptr %11, null
  br i1 %12, label %13, label %14

13:                                               ; preds = %9, %6
  tail call void @ERR_put_error(i32 noundef 17, i32 noundef 0, i32 noundef 115, ptr noundef nonnull @.str, i32 noundef 220) #18
  br label %26

14:                                               ; preds = %9
  %15 = getelementptr inbounds nuw i8, ptr %0, i64 8
  %16 = load ptr, ptr %15, align 8, !tbaa !20
  %.not = icmp eq ptr %16, null
  br i1 %.not, label %20, label %17

17:                                               ; preds = %14
  %18 = tail call i64 %16(ptr noundef nonnull %0, i32 noundef 6, ptr noundef %3, i32 noundef %1, i64 noundef %2, i64 noundef 1) #18
  %19 = icmp slt i64 %18, 1
  br i1 %19, label %26, label %._crit_edge

._crit_edge:                                      ; preds = %17
  %.pre = load ptr, ptr %0, align 8, !tbaa !6
  %.phi.trans.insert = getelementptr inbounds nuw i8, ptr %.pre, i64 48
  %.pre31 = load ptr, ptr %.phi.trans.insert, align 8, !tbaa !28
  br label %20

20:                                               ; preds = %._crit_edge, %14
  %21 = phi ptr [ %.pre31, %._crit_edge ], [ %11, %14 ]
  %22 = tail call i64 %21(ptr noundef nonnull %0, i32 noundef %1, i64 noundef %2, ptr noundef %3) #18
  %23 = load ptr, ptr %15, align 8, !tbaa !20
  %.not30 = icmp eq ptr %23, null
  br i1 %.not30, label %26, label %24

24:                                               ; preds = %20
  %25 = tail call i64 %23(ptr noundef nonnull %0, i32 noundef 134, ptr noundef %3, i32 noundef %1, i64 noundef %2, i64 noundef %22) #18
  br label %26

26:                                               ; preds = %20, %24, %17, %4, %13
  %.024 = phi i64 [ -2, %13 ], [ 0, %4 ], [ %18, %17 ], [ %25, %24 ], [ %22, %20 ]
  ret i64 %.024
}